; Function Attrs: mustprogress nounwind uwtable
define dso_local void @_ZNK4llvm12MachineInstr5printERNS_11raw_ostreamEbbbbPKNS_15TargetInstrInfoE(ptr noundef nonnull align 8 dereferenceable(70) %0, ptr noundef nonnull align 8 dereferenceable(48) %1, i1 noundef zeroext %2, i1 noundef zeroext %3, i1 noundef zeroext %4, i1 noundef zeroext %5, ptr noundef %6) local_unnamed_addr #0 align 2 {
  %8 = alloca %"class.llvm::ModuleSlotTracker", align 8
  %9 = getelementptr inbounds i8, ptr %0, i64 24
  %.val = load ptr, ptr %9, align 8
  %.not.i = icmp eq ptr %.val, null
  br i1 %.not.i, label %23, label %10

10:                                               ; preds = %7
  %11 = getelementptr inbounds nuw i8, ptr %.val, i64 32
  %12 = load ptr, ptr %11, align 8
  %.not8.i = icmp eq ptr %12, null
  br i1 %.not8.i, label %23, label %_ZL16getMFIfAvailableRKN4llvm12MachineInstrE.exit

_ZL16getMFIfAvailableRKN4llvm12MachineInstrE.exit: ; preds = %10
  %13 = load ptr, ptr %12, align 8
  %14 = getelementptr inbounds nuw i8, ptr %13, i64 40
  %15 = load ptr, ptr %14, align 8
  %.not18 = icmp eq ptr %6, null
  br i1 %.not18, label %16, label %24

16:                                               ; preds = %_ZL16getMFIfAvailableRKN4llvm12MachineInstrE.exit
  %17 = getelementptr inbounds nuw i8, ptr %12, i64 16
  %18 = load ptr, ptr %17, align 8
  %19 = load ptr, ptr %18, align 8
  %20 = getelementptr inbounds i8, ptr %19, i64 128
  %21 = load ptr, ptr %20, align 8
  %22 = tail call noundef ptr %21(ptr noundef nonnull align 8 dereferenceable(288) %18) #22
  br label %24

23:                                               ; preds = %7, %10
  call void @_ZN4llvm17ModuleSlotTrackerC1EPKNS_6ModuleEb(ptr noundef nonnull align 8 dereferenceable(112) %8, ptr noundef null, i1 noundef zeroext true) #22
  br label %25

24:                                               ; preds = %_ZL16getMFIfAvailableRKN4llvm12MachineInstrE.exit, %16
  %.0.ph = phi ptr [ %22, %16 ], [ %6, %_ZL16getMFIfAvailableRKN4llvm12MachineInstrE.exit ]
  call void @_ZN4llvm17ModuleSlotTrackerC1EPKNS_6ModuleEb(ptr noundef nonnull align 8 dereferenceable(112) %8, ptr noundef %15, i1 noundef zeroext true) #22
  call void @_ZN4llvm17ModuleSlotTracker19incorporateFunctionERKNS_8FunctionE(ptr noundef nonnull align 8 dereferenceable(112) %8, ptr noundef nonnull align 8 dereferenceable(136) %13) #22
  br label %25

25:                                               ; preds = %23, %24
  %.028 = phi ptr [ %.0.ph, %24 ], [ %6, %23 ]
  call void @_ZNK4llvm12MachineInstr5printERNS_11raw_ostreamERNS_17ModuleSlotTrackerEbbbbPKNS_15TargetInstrInfoE(ptr noundef nonnull align 8 dereferenceable(70) %0, ptr noundef nonnull align 8 dereferenceable(48) %1, ptr noundef nonnull align 8 dereferenceable(112) %8, i1 noundef zeroext %2, i1 noundef zeroext %3, i1 noundef zeroext %4, i1 noundef zeroext %5, ptr noundef %.028)
  call void @_ZN4llvm17ModuleSlotTrackerD1Ev(ptr noundef nonnull align 8 dereferenceable(112) %8) #22
  ret void
}